(dp1
S'output'
p2
S"<type 'exceptions.ValueError'> need more than 1 value to unpack"
p3
sS'layer'
p4
S'/media/anderson/5B8F2F2D60461C6E/BSI/Engenharia de Software I/Projeto disciplina/web2py/applications/Confeitaria/controllers/default.py'
p5
sS'code'
p6
S'# -*- coding: utf-8 -*-\n# this file is released under public domain and you can use without limitations\n\n# -------------------------------------------------------------------------\n# This is a sample controller\n# - index is the default action of any application\n# - user is required for authentication and authorization\n# - download is for downloading files uploaded in the db (does streaming)\n# -------------------------------------------------------------------------\n\nfrom gluon.tools import Crud\n\ndef index():\n    """\n    example action using the internationalization operator T and flash\n    rendered by views/default/index.html or views/generic.html\n\n    if you need a simple wiki simply replace the two lines below with:\n    return auth.wiki()\n    """\n    #~ response.flash = T("Hello World")\n    return dict(message=T(\'Welcome to web2py!\'))\n\n\ndef user():\n    """\n    exposes:\n    http://..../[app]/default/user/login\n    http://..../[app]/default/user/logout\n    http://..../[app]/default/user/register\n    http://..../[app]/default/user/profile\n    http://..../[app]/default/user/retrieve_password\n    http://..../[app]/default/user/change_password\n    http://..../[app]/default/user/bulk_register\n    use @auth.requires_login()\n        @auth.requires_membership(\'group name\')\n        @auth.requires_permission(\'read\',\'table name\',record_id)\n    to decorate functions that need access control\n    also notice there is http://..../[app]/appadmin/manage/auth to allow administrator to manage users\n    """\n    return dict(form=auth())\n\n\n@cache.action()\ndef download():\n    """\n    allows downloading of uploaded files\n    http://..../[app]/default/download/[filename]\n    """\n    return response.download(request, db)\n\n\ndef call():\n    """\n    exposes services. for example:\n    http://..../[app]/default/call/jsonrpc\n    decorate with @services.jsonrpc the functions to expose\n    supports xml, json, xmlrpc, jsonrpc, amfrpc, rss, csv\n    """\n    return service()\n\ndef BuscarCliente():\n\tform = SQLFORM.factory(\n\t\tField(\'nome\', requires=IS_NOT_EMPTY(error_message=\'Digite seu nome\')),\n\t\tsubmit_button=\'Buscar\'\n\t)\n\tconsulta = db(db.clientes.nome == request.vars.nome).select()\n\tfor coluna in consulta:\n\t\tprint consulta\n\tresponse.flash = \'Cliente %s encontrado!\' %request.vars.nome\n\tif form.errors:\n\t\tresponse.flash = \'Verifique os dados inseridos\'\n\treturn dict(form=form)\n\ndef CadastrarCliente():\n\tform = SQLFORM(db.clientes, submit_button=\'Salvar\')\n\tif form.process().accepted:\n\t\tresponse.flash = \'Cliente cadastrado com sucesso!\'\n\telif form.errors:\n\t\tresponse.flash = \'Verifique as informa\xc3\xa7\xc3\xb5es inseridas!\'\n\t\t\n\treturn dict(form=form)\n\ndef CadastrarItem():\n\tform = SQLFORM(db.item, submit_button=\'Salvar\')\n\tif form.process().accepted:\n\t\tresponse.flash = \'Ingrediente cadastrado com sucesso!\'\n\telif form.errors:\n\t\tresponse.flash = \'Verifique as informa\xc3\xa7\xc3\xb5es inseridas!\'\n\treturn dict(form=form)\n\ndef CadastrarPedido():\n\tform = SQLFORM(db.pedido, submit_button=\'Salvar\')\n\tif form.process().accepted:\n\t\tresponse.flash = \'Pedido cadastrado com sucesso!\'\n\t\tredirect(URL(\'CadastrarOrcamento\'))\n\telif form.errors:\n\t\tresponse.flash = \'Verifique as informa\xc3\xa7\xc3\xb5es inseridas!\'\n\treturn dict(form=form)\n\ndef CadastrarOrcamento():\n\tform = SQLFORM(db.orcamento, submit_button=\'Salvar\')\n\tif form.process().accepted:\n\t\tresponse.flash = \'Pedido cadastrado com sucesso!\'\n\t\tredirect(URL(\'CadastrarItem\'))\n\telif form.errors:\n\t\tresponse.flash = \'Verifique as informa\xc3\xa7\xc3\xb5es inseridas!\'\n\treturn dict(form=form)\n\n\n\nresponse._vars=response._caller(BuscarCliente)\n'
p7
sS'snapshot'
p8
(dp9
sS'traceback'
p10
S'Traceback (most recent call last):\n  File "/media/anderson/5B8F2F2D60461C6E/BSI/Engenharia de Software I/Projeto disciplina/web2py/gluon/restricted.py", line 227, in restricted\n    exec ccode in environment\n  File "/media/anderson/5B8F2F2D60461C6E/BSI/Engenharia de Software I/Projeto disciplina/web2py/applications/Confeitaria/controllers/default.py", line 112, in <module>\n  File "/media/anderson/5B8F2F2D60461C6E/BSI/Engenharia de Software I/Projeto disciplina/web2py/gluon/globals.py", line 417, in <lambda>\n    self._caller = lambda f: f()\n  File "/media/anderson/5B8F2F2D60461C6E/BSI/Engenharia de Software I/Projeto disciplina/web2py/applications/Confeitaria/controllers/default.py", line 67, in BuscarCliente\n    consulta = db(db.clientes.nome == request.vars.nome).select()\n  File "/media/anderson/5B8F2F2D60461C6E/BSI/Engenharia de Software I/Projeto disciplina/web2py/gluon/packages/dal/pydal/objects.py", line 2020, in select\n    return adapter.select(self.query, fields, attributes)\n  File "/media/anderson/5B8F2F2D60461C6E/BSI/Engenharia de Software I/Projeto disciplina/web2py/gluon/packages/dal/pydal/adapters/sqlite.py", line 123, in select\n    return super(SQLiteAdapter, self).select(query, fields, attributes)\n  File "/media/anderson/5B8F2F2D60461C6E/BSI/Engenharia de Software I/Projeto disciplina/web2py/gluon/packages/dal/pydal/adapters/base.py", line 1296, in select\n    return self._select_aux(sql,fields,attributes)\n  File "/media/anderson/5B8F2F2D60461C6E/BSI/Engenharia de Software I/Projeto disciplina/web2py/gluon/packages/dal/pydal/adapters/base.py", line 1253, in _select_aux\n    self.execute(sql)\n  File "/media/anderson/5B8F2F2D60461C6E/BSI/Engenharia de Software I/Projeto disciplina/web2py/gluon/packages/dal/pydal/adapters/base.py", line 1388, in execute\n    return self.log_execute(*a, **b)\n  File "/media/anderson/5B8F2F2D60461C6E/BSI/Engenharia de Software I/Projeto disciplina/web2py/gluon/packages/dal/pydal/adapters/base.py", line 1382, in log_execute\n    ret = self.get_cursor().execute(command, *a[1:], **b)\n  File "/usr/lib/python2.7/sqlite3/dbapi2.py", line 68, in convert_timestamp\n    datepart, timepart = val.split(" ")\nValueError: need more than 1 value to unpack\n'
p11
s.