(dp1
S'output'
p2
S"<type 'exceptions.AttributeError'> 'str' object has no attribute 'year'"
p3
sS'layer'
p4
S'/media/anderson/5B8F2F2D60461C6E/BSI/Engenharia de Software I/Projeto disciplina/web2py/applications/Confeitaria/controllers/default.py'
p5
sS'code'
p6
S'# -*- coding: utf-8 -*-\n# this file is released under public domain and you can use without limitations\n\n# -------------------------------------------------------------------------\n# This is a sample controller\n# - index is the default action of any application\n# - user is required for authentication and authorization\n# - download is for downloading files uploaded in the db (does streaming)\n# -------------------------------------------------------------------------\n\nfrom gluon.tools import Crud\n\ndef index():\n    """\n    example action using the internationalization operator T and flash\n    rendered by views/default/index.html or views/generic.html\n\n    if you need a simple wiki simply replace the two lines below with:\n    return auth.wiki()\n    """\n    response.flash = T("Hello World")\n    return dict(message=T(\'Welcome to web2py!\'))\n\n\ndef user():\n    """\n    exposes:\n    http://..../[app]/default/user/login\n    http://..../[app]/default/user/logout\n    http://..../[app]/default/user/register\n    http://..../[app]/default/user/profile\n    http://..../[app]/default/user/retrieve_password\n    http://..../[app]/default/user/change_password\n    http://..../[app]/default/user/bulk_register\n    use @auth.requires_login()\n        @auth.requires_membership(\'group name\')\n        @auth.requires_permission(\'read\',\'table name\',record_id)\n    to decorate functions that need access control\n    also notice there is http://..../[app]/appadmin/manage/auth to allow administrator to manage users\n    """\n    return dict(form=auth())\n\n\n@cache.action()\ndef download():\n    """\n    allows downloading of uploaded files\n    http://..../[app]/default/download/[filename]\n    """\n    return response.download(request, db)\n\n\ndef call():\n    """\n    exposes services. for example:\n    http://..../[app]/default/call/jsonrpc\n    decorate with @services.jsonrpc the functions to expose\n    supports xml, json, xmlrpc, jsonrpc, amfrpc, rss, csv\n    """\n    return service()\n\ndef CadastrarCliente():\n\tform = SQLFORM(db.clientes, submit_button=\'Salvar\')\n\tif form.process().accepted:\n\t\tresponse.flash = \'Cliente cadastrado com sucesso!\'\n\treturn dict(form=form)\n\ndef CadastrarPedido():\n\tform = SQLFORM(db.pedido, submit_button=\'Salvar\')\n\tif form.process().accepted:\n\t\tresponse.flash = \'Pedido cadastrado com sucesso!\'\n\treturn dict(form=form)\n\ndef BuscarCliente():\n\tcrud = Crud(db)\n\tform = SQLFORM.factory(\n\t\tField(\'nome\', rname = \'Nome\', requires=IS_NOT_EMPTY()),\n\t\tField(\'datanasc\', rname = \'Data de nascimento\', requires=IS_NOT_EMPTY()),\n\t\tsubmit_button=\'Procurar\',\n\t)\n\tcrud.search(db.clientes)\n\treturn dict(form=form)\n\n\nresponse._vars=response._caller(CadastrarPedido)\n'
p7
sS'snapshot'
p8
(dp9
sS'traceback'
p10
S'Traceback (most recent call last):\n  File "/media/anderson/5B8F2F2D60461C6E/BSI/Engenharia de Software I/Projeto disciplina/web2py/gluon/restricted.py", line 227, in restricted\n    exec ccode in environment\n  File "/media/anderson/5B8F2F2D60461C6E/BSI/Engenharia de Software I/Projeto disciplina/web2py/applications/Confeitaria/controllers/default.py", line 85, in <module>\n  File "/media/anderson/5B8F2F2D60461C6E/BSI/Engenharia de Software I/Projeto disciplina/web2py/gluon/globals.py", line 417, in <lambda>\n    self._caller = lambda f: f()\n  File "/media/anderson/5B8F2F2D60461C6E/BSI/Engenharia de Software I/Projeto disciplina/web2py/applications/Confeitaria/controllers/default.py", line 69, in CadastrarPedido\n    form = SQLFORM(db.pedido, submit_button=\'Salvar\')\n  File "/media/anderson/5B8F2F2D60461C6E/BSI/Engenharia de Software I/Projeto disciplina/web2py/gluon/sqlhtml.py", line 1252, in __init__\n    default = field.formatter(default)\n  File "/media/anderson/5B8F2F2D60461C6E/BSI/Engenharia de Software I/Projeto disciplina/web2py/gluon/packages/dal/pydal/objects.py", line 1624, in formatter\n    value = item.formatter(value)\n  File "/media/anderson/5B8F2F2D60461C6E/BSI/Engenharia de Software I/Projeto disciplina/web2py/gluon/validators.py", line 2246, in formatter\n    year = value.year\nAttributeError: \'str\' object has no attribute \'year\'\n'
p11
s.